


ARM Macro Assembler    Page 1 


    1 00000000                 AREA             |.text|, CODE, READONLY
    2 00000000         
    3 00000000         minus   PROC
    4 00000000         ; –Ω–∞—á–∞–ª–æ  –ø–æ–¥–ø—Ä–æ–≥—Ä–∞–º–º—ã minus,–¥–∞–Ω–Ω–
                       ∞—è –ø–æ–¥–ø—Ä–æ–≥—Ä–∞–º–º–∞ —Ä–µ–∞–ª–∏–∑—É–µ—Ç –Ω–∞—Ö–æ
                       –∂–¥–µ–Ω–∏–µ –æ—Ç—Ä–∏—Ü–∞—Ç–µ–ª—å–Ω–æ–≥–æ —á–∏—Å–ª–∞
    5 00000000 5AC7            ldrh             R7,[R0,R3]  ; –ó–∞–ø–∏—Å—å –≤ R
                                                            7 –∏–∑ —Ä–µ–≥–∏—Å—Ç
                                                            —Ä–∞ R4 —Å–æ —Å–º–µ
                                                            —â–µ–Ω–∏–µ–º R2 
    6 00000002 FA0F F7B7       sxth             R7, R7, ROR #24 ;–†–∞—Å—à–∏—Ä–µ
                                                            –Ω–∏–µ –ø–æ–ª—É—Å–ª
                                                            –æ–≤–∞ —Å–æ –∑–Ω–∞–
                                                            ∫–æ–º –¥–æ 32-—Ä–∞–
                                                            ∑—Ä—è–¥–Ω–æ–≥–æ —Å–
                                                            ª–æ–≤–∞ –≤–ø—Ä–∞–≤–
                                                            æ –Ω–∞ 3 –±–∞–π—Ç–∞
                                                            (–¥–ª—è —Ä–∞—Å–ø–æ–
                                                            ∑–Ω–æ–≤–∞–Ω–∏—è –æ—
                                                            Ç—Ä–∏—Ü–∞—Ç–µ–ª—å–Ω
                                                            —ã—Ö –∏ –ø–æ–ª–æ–∂–
                                                            ∏—Ç–µ–ª—å–Ω—ã—Ö —á–
                                                            ∏—Å–µ–ª) 
    7 00000006         
    8 00000006         
    9 00000006 42B7            cmp              R7,R6       ; —Å—Ä–∞–≤–Ω–µ–Ω–∏–
                                                            µ —á–∏—Å–ª–∞ —Å –Ω—
                                                            É–ª–µ–º
   10 00000008 DB02            blt              cloop       ; –º–µ—Ç–∫–∞ –ø–µ—Ä
                                                            –µ—Ö–æ–¥–∞(–º–µ–Ω—å
                                                            —à–µ), –ø—Ä–∏ –∫–æ—
                                                            Ç–æ—Ä–æ–π –æ—Å—É—â–
                                                            µ—Å—Ç–≤–ª—è–µ—Ç—Å—è
                                                             –ø–µ—Ä–µ—Ö–æ–¥ –≤ 
                                                            cloop, –µ—Å–ª–∏ —á–
                                                            ∏—Å–ª–æ –æ–∫–∞–∑–∞–
                                                            ª–æ—Å—å –æ—Ç—Ä–∏—Ü–
                                                            ∞—Ç–µ–ª—å–Ω—ã–º 
   11 0000000A F103 0302       add              R3,#2       ; –≤—ã–±–æ—Ä —Å–ª–µ
                                                            –¥—É—é—â–µ–≥–æ —ç–ª
                                                            –µ–º–µ–Ω—Ç–∞ –º–∞—Å
                                                            —Å–∏–≤–∞(—Å–º–µ—â–µ
                                                            –Ω–∏–µ –Ω–∞ 2, —Ç.–
                                                            ∫. —É –Ω–∞—Å —á–∏—Å
                                                            –ª–æ –¥—ã—É—Ö–±–∞–π
                                                            —Ç–Ω–æ–µ)   ;
   12 0000000E         
   13 0000000E 4770            BX               LR          ; –≤—ã—Ö–æ–¥ –∏–∑ –
                                                            ø–æ–¥–ø—Ä–æ–≥—Ä–∞–º
                                                            –º—ã
   14 00000010         cloop
   15 00000010 B503            PUSH             {R0,R1, LR} ; –∫–æ–º–∞–Ω–¥–∞ —Å
                                                            –æ—Ö—Ä–∞–Ω–µ–Ω–∏—è 
                                                            –≤ —Å—Ç–µ–∫–µ —É–∫–
                                                            ∞–∑–∞–Ω–Ω—ã—Ö —Ä–µ–
                                                            ≥–∏—Å—Ç—Ä–æ–≤
   16 00000012         
   17 00000012 F7FF FFFE       BL               write       ; –ø–µ—Ä–µ—Ö–æ–¥ –∫
                                                             –ø–æ–¥–ø—Ä–æ–≥—Ä–∞



ARM Macro Assembler    Page 2 


                                                            –º–º–µ write
   18 00000016         
   19 00000016 E8BD 4003       POP              {R0,R1, LR} ; –∏–∑–≤–ª–µ—á–µ–Ω–
                                                            ∏–µ –∏–∑ —Å—Ç–µ–∫–∞
                                                             –¥–∞–Ω–Ω—ã—Ö —Ä–µ–
                                                            ≥–∏—Å—Ç—Ä–æ–≤
   20 0000001A         
   21 0000001A 4770            BX               LR          ; –≤—ã—Ö–æ–¥ –∏–∑ –
                                                            ø–æ–¥–ø—Ä–æ–≥—Ä–∞–º
                                                            –º—ã
   22 0000001C                 ENDP
   23 0000001C         
   24 0000001C         
   25 0000001C         write   PROC                         ;–Ω–∞—á–∞–ª–æ  –ø–æ
                                                            –¥–ø—Ä–æ–≥—Ä–∞–º–º—
                                                            ã write,–¥–∞–Ω–Ω–∞—
                                                            è –ø–æ–¥–ø—Ä–æ–≥—Ä–
                                                            ∞–º–º–∞ —Ä–µ–∞–ª–∏–
                                                            ∑—É–µ—Ç –ø–æ–¥—Å—á–
                                                            µ—Ç –æ—Ç—Ä–∏—Ü–∞—Ç–
                                                            µ–ª—å–Ω—ã—Ö —á–∏—Å–
                                                            µ–ª –∏ –ø–æ–º–µ—â–∞
                                                            –µ—Ç –≤ R5, –∞ —Ç–∞
                                                            –∫–∂–µ –ø–µ—Ä–µ–ø–∏
                                                            —Å—ã–≤–∞–µ—Ç –æ—Ç—Ä
                                                            –∏—Ü–∞—Ç–µ–ª—å–Ω—ã–
                                                            µ —á–∏—Å–ª–∞ –≤ –≤—
                                                            ã—Ö–æ–¥–Ω–æ–π –º–∞—
                                                            Å—Å–∏–≤
   26 0000001C FA1F F797       uxth             R7, R7, ROR #8 ;–±–µ–∑ –∑–Ω–∞–∫
                                                            –æ–≤–æ–µ —Ä–∞—Å—à–∏
                                                            —Ä–µ–Ω–∏–µ  –ø–æ–ª—
                                                            É—Å–ª–æ–≤–∞ –¥–æ 32
                                                            -—Ö –±–∏—Ç –Ω–∞ 1 –
                                                            ±–∞–π—Ç
   27 00000020 F822 7009       strh             R7, [R2, R9]
   28 00000024 F105 0501       add              R5,#1       ; –ø–æ–¥—Å—á–µ—Ç –∫
                                                            –æ–ª–∏—á–µ—Å—Ç–≤–∞ 
                                                            –æ—Ç—Ä–∏—Ü–∞—Ç–µ–ª—
                                                            å–Ω—ã—Ö —á–∏—Å–µ–ª
   29 00000028 F109 0902       add              R9,#2       ; –∑–∞–ø–∏—Å—å –æ—Ç
                                                            —Ä–∏—Ü–∞—Ç–µ–ª—å–Ω—
                                                            ã—Ö —á–∏—Å–µ–ª –≤ –
                                                            ≤—ã—Ö–æ–¥–Ω–æ–π –º–
                                                            ∞—Å—Å–∏–≤
   30 0000002C         
   31 0000002C         
   32 0000002C F103 0302       add              R3,#2       ; –ø–µ—Ä–µ—Ö–æ–¥ –∫
                                                             —Å–ª–µ–¥—É—é—â–µ–º
                                                            —É —ç–ª–µ–º–µ–Ω—Ç—É
                                                             –≤—Ö–æ–¥–Ω–æ–≥–æ –
                                                            º–∞—Å—Å–∏–≤–∞
   33 00000030         
   34 00000030 4770            BX               LR          ; –≤—ã—Ö–æ–¥ –∏–∑ –
                                                            ø–æ–¥–ø—Ä–æ–≥—Ä–∞–º
                                                            –º—ã
   35 00000032                 ENDP                         ; –∫–æ–Ω–µ—Ü –ø—Ä–æ
                                                            —Ü–µ—Å—Å–∞ write
   36 00000032         



ARM Macro Assembler    Page 3 


   37 00000032         array_treatment_asm
                               PROC                         ; –ù–∞—á–∞–ª–æ —Ñ—É
                                                            –Ω–∫—Ü–∏–∏ array_tr
                                                            eatment_asm
   38 00000032                 EXPORT           array_treatment_asm
   39 00000032         Start   PROC                         ; –ù–∞—á–∞–ª–æ –ø—Ä
                                                            –æ—Ü–µ—Å—Å–∞
   40 00000032         
   41 00000032 F04F 0300       mov              R3,#0       ;   (i=0)-—Å—á–µ—Ç—
                                                            á–∏–∫
   42 00000036 F04F 0500       mov              R5,#0       ;   (a=0)- —Ä–µ–≥–∏
                                                            —Å—Ç—Ä,–≤ –∫–æ—Ç–æ—
                                                            Ä—ã–π –±—É–¥–µ—Ç –ø
                                                            –æ–º–µ—â–∞—Ç—å—Å—è 
                                                            –∫–æ–ª–∏—á–µ—Å—Ç–≤–
                                                            æ –æ—Ç—Ä–∏—Ü–∞—Ç–µ–
                                                            ª—å–Ω—ã—Ö —á–∏—Å–µ–
                                                            ª
   43 0000003A F04F 0600       mov              R6,#0       ; –∑–Ω–∞—á–µ–Ω–∏–µ,
                                                             —Å –∫–æ—Ç–æ—Ä—ã–º 
                                                            —Å—Ä–∞–≤–Ω–∏–≤–∞—é—
                                                            Ç—Å—è —á–∏—Å–ª–∞,—É
                                                            –∫–∞–∑–∞–Ω–Ω—ã–µ –≤
                                                            –æ –≤—Ö–æ–¥–Ω–æ–º –
                                                            º–∞—Å—Å–∏–≤–µ
   44 0000003E F04F 0702       mov              R7, #2
   45 00000042 FB01 F107       mul              R1, R7
   46 00000046         
   47 00000046         loop                                 ; –Ω–∞—á–∞–ª–æ —Ü–∏
                                                            –∫–ª–∞, –≤ –∫–æ—Ç–æ
                                                            —Ä–æ–º —Å—Ä–∞–≤–Ω–∏
                                                            –≤–∞–µ—Ç—Å—è –Ω–æ–º
                                                            –µ—Ä —á–∏—Å–ª–∞ —Å 
                                                            –¥–ª–∏–Ω–æ–π –º–∞—Å
                                                            —Å–∏–≤–∞
   48 00000046 428B            cmp              R3,R1       ; —Å—Ä–∞–≤–Ω–µ–Ω–∏—
                                                            è –Ω–æ–º–µ—Ä–∞ —á–∏
                                                            —Å–ª–∞ —Å –¥–ª–∏–Ω–
                                                            æ–π –º–∞—Å—Å–∏–≤–∞
   49 00000048 DA05            bge              deadloop    ; –µ—Å–ª–∏ –Ω–æ–º–µ
                                                            —Ä —á–∏—Å–ª–∞ –±–æ–
                                                            ª—å—à–µ –¥–ª–∏–Ω—ã 
                                                            –º–∞—Å—Å–∏–≤–∞, —Ç–
                                                            æ –ø–µ—Ä–µ—Ö–æ–¥–∏—
                                                            Ç –≤ –º–µ—Ç–∫—É dea
                                                            dloop –∏ –∑–∞–∫–∞–Ω
                                                            —á–∏–≤–∞–µ—Ç—Å—è –ø
                                                            —Ä–æ–≥—Ä–∞–º–º–∞
   50 0000004A         
   51 0000004A B503            PUSH             {R0,R1, LR} ;–∫–æ–º–∞–Ω–¥–∞ —Å–
                                                            æ—Ö—Ä–∞–Ω–µ–Ω–∏—è –
                                                            ≤ —Å—Ç–µ–∫–µ —É–∫–∞
                                                            –∑–∞–Ω–Ω—ã—Ö —Ä–µ–≥
                                                            –∏—Å—Ç—Ä–æ–≤(–∑–∞–≥
                                                            —Ä—É–∑–∫–∞ –≤ —Å—Ç–
                                                            µ–∫)
   52 0000004C F7FF FFFE       BL               minus       ; –ø–µ—Ä–µ—Ö–æ–¥ –≤
                                                             –ø–æ–¥–ø—Ä–æ–≥—Ä–∞
                                                            –º–º—É minus



ARM Macro Assembler    Page 4 


   53 00000050 E8BD 4003       POP              {R0,R1, LR} ;–∏–∑–≤–ª–µ—á–µ–Ω–∏
                                                            –µ –∏–∑ —Å—Ç–µ–∫–∞ 
                                                            –¥–∞–Ω–Ω—ã—Ö —Ä–µ–≥
                                                            –∏—Å—Ç—Ä–æ–≤(–≤—ã–≥
                                                            —Ä—É–∑–∏—Ç—å)
   54 00000054         
   55 00000054 E7F7            b                loop        ; –º–µ—Ç–∫–∞ –≤–æ–∑
                                                            –≤—Ä–∞—Ç–∞ –≤ loop
   56 00000056         
   57 00000056         deadloop
   58 00000056 4628            mov              R0, R5
   59 00000058 4770            BX               LR
   60 0000005A                 ENDP                         ;   
   61 0000005A         
   62 0000005A                 END                          ; –∫–æ–Ω–µ—Ü –ø—Ä–æ
                                                            –≥—Ä–∞–º–º—ã
Command Line: --debug --xref --diag_suppress=9931 --cpu=Cortex-M3 --apcs=interw
ork --depend=.\objects\main_1.d -o.\objects\main_1.o -I.\RTE\_Target_1 -IC:\Kei
l_v5\ARM\PACK\Keil\STM32F1xx_DFP\2.3.0\Device\Include -IC:\Keil_v5\ARM\CMSIS\In
clude --predefine="__EVAL SETA 1" --predefine="__UVISION_VERSION SETA 524" --pr
edefine="STM32F10X_MD SETA 1" --list=.\listings\main_1.lst main_1.s



ARM Macro Assembler    Page 1 Alphabetic symbol ordering
Relocatable symbols

.text 00000000

Symbol: .text
   Definitions
      At line 1 in file main_1.s
   Uses
      None
Comment: .text unused
Start 00000032

Symbol: Start
   Definitions
      At line 39 in file main_1.s
   Uses
      None
Comment: Start unused
array_treatment_asm 00000032

Symbol: array_treatment_asm
   Definitions
      At line 37 in file main_1.s
   Uses
      At line 38 in file main_1.s
Comment: array_treatment_asm used once
cloop 00000010

Symbol: cloop
   Definitions
      At line 14 in file main_1.s
   Uses
      At line 10 in file main_1.s
Comment: cloop used once
deadloop 00000056

Symbol: deadloop
   Definitions
      At line 57 in file main_1.s
   Uses
      At line 49 in file main_1.s
Comment: deadloop used once
loop 00000046

Symbol: loop
   Definitions
      At line 47 in file main_1.s
   Uses
      At line 55 in file main_1.s
Comment: loop used once
minus 00000000

Symbol: minus
   Definitions
      At line 3 in file main_1.s
   Uses
      At line 52 in file main_1.s
Comment: minus used once
write 0000001C

Symbol: write



ARM Macro Assembler    Page 2 Alphabetic symbol ordering
Relocatable symbols

   Definitions
      At line 25 in file main_1.s
   Uses
      At line 17 in file main_1.s
Comment: write used once
8 symbols
341 symbols in table
